; Function Attrs: mustprogress nounwind uwtable
define hidden noundef zeroext i1 @_ZN13G1BatchedTask21try_claim_serial_taskERi(ptr noundef nonnull align 8 dereferenceable(64) %0, ptr nocapture noundef nonnull writeonly align 4 dereferenceable(4) %1) local_unnamed_addr #0 align 2 {
  %3 = getelementptr inbounds i8, ptr %0, i64 20
  %4 = tail call noundef i32 asm sideeffect "lock xaddl $0,($2)", "=r,0,r,~{cc},~{memory},~{dirflag},~{fpsr},~{flags}"(i32 1, ptr nonnull %3) #9, !srcloc !6
  store i32 %4, ptr %1, align 4
  %5 = getelementptr inbounds i8, ptr %0, i64 32
  %6 = load i32, ptr %5, align 8
  %7 = icmp slt i32 %4, %6
  ret i1 %7
}